; Function Attrs: nounwind uwtable
define dso_local void @zend_destroy_file_handle(ptr noundef %0) local_unnamed_addr #0 {
  %2 = getelementptr inbounds nuw i8, ptr %0, i64 58
  %3 = load i8, ptr %2, align 2, !tbaa !30, !range !31, !noundef !32
  %4 = trunc nuw i8 %3 to i1
  br i1 %4, label %5, label %7

5:                                                ; preds = %1
  tail call void @zend_llist_del_element(ptr noundef nonnull getelementptr inbounds nuw (i8, ptr @compiler_globals, i64 88), ptr noundef nonnull %0, ptr noundef nonnull @zend_compare_file_handles) #16
  %6 = getelementptr inbounds nuw i8, ptr %0, i64 40
  tail call void @llvm.memset.p0.i64(ptr noundef nonnull align 8 dereferenceable(16) %6, i8 0, i64 16, i1 false)
  br label %8

7:                                                ; preds = %1
  tail call void @zend_file_handle_dtor(ptr noundef nonnull %0)
  br label %8

8:                                                ; preds = %7, %5
  ret void
}